target datalayout = "e-m:e-p270:32:32-p271:32:32-p272:64:64-i64:64-i128:128-f80:128-n8:16:32:64-S128"
target triple = "x86_64-pc-linux-gnu"

%struct.sdshdr8 = type { i8, i8, i8, [0 x i8] }
%struct.sdshdr16 = type <{ i16, i16, i8, [0 x i8] }>
%struct.sdshdr32 = type <{ i32, i32, i8, [0 x i8] }>
%struct.sdshdr64 = type <{ i64, i64, i8, [0 x i8] }>
%struct.streamID = type { i64, i64 }
%struct.streamConsumer = type { i64, i64, ptr, ptr }
%struct.streamNACK = type { i64, i64, ptr }

@.str.128 = private unnamed_addr constant [6 x i8] c"%U-%U\00", align 1
@.str.129 = private unnamed_addr constant [7 x i8] c"XCLAIM\00", align 1
@.str.130 = private unnamed_addr constant [2 x i8] c"0\00", align 1
@.str.131 = private unnamed_addr constant [5 x i8] c"TIME\00", align 1
@.str.132 = private unnamed_addr constant [11 x i8] c"RETRYCOUNT\00", align 1
@.str.133 = private unnamed_addr constant [7 x i8] c"JUSTID\00", align 1
@.str.134 = private unnamed_addr constant [6 x i8] c"FORCE\00", align 1

; Function Attrs: nounwind uwtable
define dso_local i32 @rioWriteBulkStreamID(ptr noundef %0, ptr noundef %1) #0 {
  %3 = alloca ptr, align 8
  %4 = alloca ptr, align 8
  %5 = alloca i32, align 4
  %6 = alloca ptr, align 8
  store ptr %0, ptr %3, align 8, !tbaa !173
  store ptr %1, ptr %4, align 8, !tbaa !201
  call void @llvm.lifetime.start.p0(i64 4, ptr %5) #12
  call void @llvm.lifetime.start.p0(i64 8, ptr %6) #12
  %7 = call ptr @sdsempty()
  %8 = load ptr, ptr %4, align 8, !tbaa !201
  %9 = getelementptr inbounds nuw %struct.streamID, ptr %8, i32 0, i32 0
  %10 = load i64, ptr %9, align 8, !tbaa !203
  %11 = load ptr, ptr %4, align 8, !tbaa !201
  %12 = getelementptr inbounds nuw %struct.streamID, ptr %11, i32 0, i32 1
  %13 = load i64, ptr %12, align 8, !tbaa !205
  %14 = call ptr (ptr, ptr, ...) @sdscatfmt(ptr noundef %7, ptr noundef @.str.128, i64 noundef %10, i64 noundef %13)
  store ptr %14, ptr %6, align 8, !tbaa !18
  %15 = load ptr, ptr %3, align 8, !tbaa !173
  %16 = load ptr, ptr %6, align 8, !tbaa !18
  %17 = load ptr, ptr %6, align 8, !tbaa !18
  %18 = call i64 @sdslen(ptr noundef %17)
  %19 = call i64 @rioWriteBulkString(ptr noundef %15, ptr noundef %16, i64 noundef %18)
  %20 = trunc i64 %19 to i32
  store i32 %20, ptr %5, align 4, !tbaa !22
  %21 = load ptr, ptr %6, align 8, !tbaa !18
  call void @sdsfree(ptr noundef %21)
  %22 = load i32, ptr %5, align 4, !tbaa !22
  call void @llvm.lifetime.end.p0(i64 8, ptr %6) #12
  call void @llvm.lifetime.end.p0(i64 4, ptr %5) #12
  ret i32 %22
}

; Function Attrs: inlinehint nounwind uwtable
define internal i64 @sdslen(ptr noundef %0) #6 {
  %2 = alloca i64, align 8
  %3 = alloca ptr, align 8
  %4 = alloca i8, align 1
  %5 = alloca i32, align 4
  store ptr %0, ptr %3, align 8, !tbaa !18
  call void @llvm.lifetime.start.p0(i64 1, ptr %4) #12
  %6 = load ptr, ptr %3, align 8, !tbaa !18
  %7 = getelementptr inbounds i8, ptr %6, i64 -1
  %8 = load i8, ptr %7, align 1, !tbaa !19
  store i8 %8, ptr %4, align 1, !tbaa !19
  %9 = load i8, ptr %4, align 1, !tbaa !19
  %10 = zext i8 %9 to i32
  %11 = and i32 %10, 7
  switch i32 %11, label %40 [
    i32 0, label %12
    i32 1, label %17
    i32 2, label %23
    i32 3, label %29
    i32 4, label %35
  ]

12:                                               ; preds = %1
  %13 = load i8, ptr %4, align 1, !tbaa !19
  %14 = zext i8 %13 to i32
  %15 = ashr i32 %14, 3
  %16 = sext i32 %15 to i64
  store i64 %16, ptr %2, align 8
  store i32 1, ptr %5, align 4
  br label %41

17:                                               ; preds = %1
  %18 = load ptr, ptr %3, align 8, !tbaa !18
  %19 = getelementptr inbounds i8, ptr %18, i64 -3
  %20 = getelementptr inbounds nuw %struct.sdshdr8, ptr %19, i32 0, i32 0
  %21 = load i8, ptr %20, align 1, !tbaa !19
  %22 = zext i8 %21 to i64
  store i64 %22, ptr %2, align 8
  store i32 1, ptr %5, align 4
  br label %41

23:                                               ; preds = %1
  %24 = load ptr, ptr %3, align 8, !tbaa !18
  %25 = getelementptr inbounds i8, ptr %24, i64 -5
  %26 = getelementptr inbounds nuw %struct.sdshdr16, ptr %25, i32 0, i32 0
  %27 = load i16, ptr %26, align 1, !tbaa !20
  %28 = zext i16 %27 to i64
  store i64 %28, ptr %2, align 8
  store i32 1, ptr %5, align 4
  br label %41

29:                                               ; preds = %1
  %30 = load ptr, ptr %3, align 8, !tbaa !18
  %31 = getelementptr inbounds i8, ptr %30, i64 -9
  %32 = getelementptr inbounds nuw %struct.sdshdr32, ptr %31, i32 0, i32 0
  %33 = load i32, ptr %32, align 1, !tbaa !22
  %34 = zext i32 %33 to i64
  store i64 %34, ptr %2, align 8
  store i32 1, ptr %5, align 4
  br label %41

35:                                               ; preds = %1
  %36 = load ptr, ptr %3, align 8, !tbaa !18
  %37 = getelementptr inbounds i8, ptr %36, i64 -17
  %38 = getelementptr inbounds nuw %struct.sdshdr64, ptr %37, i32 0, i32 0
  %39 = load i64, ptr %38, align 1, !tbaa !23
  store i64 %39, ptr %2, align 8
  store i32 1, ptr %5, align 4
  br label %41

40:                                               ; preds = %1
  store i64 0, ptr %2, align 8
  store i32 1, ptr %5, align 4
  br label %41

41:                                               ; preds = %40, %35, %29, %23, %17, %12
  call void @llvm.lifetime.end.p0(i64 1, ptr %4) #12
  %42 = load i64, ptr %2, align 8
  ret i64 %42
}

; Function Attrs: nounwind uwtable
define dso_local i32 @rioWriteStreamPendingEntry(ptr noundef %0, ptr noundef %1, ptr noundef %2, i64 noundef %3, ptr noundef %4, ptr noundef %5, ptr noundef %6) #0 {
  %8 = alloca i32, align 4
  %9 = alloca ptr, align 8
  %10 = alloca ptr, align 8
  %11 = alloca ptr, align 8
  %12 = alloca i64, align 8
  %13 = alloca ptr, align 8
  %14 = alloca ptr, align 8
  %15 = alloca ptr, align 8
  %16 = alloca %struct.streamID, align 8
  %17 = alloca i32, align 4
  store ptr %0, ptr %9, align 8, !tbaa !173
  store ptr %1, ptr %10, align 8, !tbaa !132
  store ptr %2, ptr %11, align 8, !tbaa !18
  store i64 %3, ptr %12, align 8, !tbaa !23
  store ptr %4, ptr %13, align 8, !tbaa !206
  store ptr %5, ptr %14, align 8, !tbaa !18
  store ptr %6, ptr %15, align 8, !tbaa !208
  call void @llvm.lifetime.start.p0(i64 16, ptr %16) #12
  %18 = load ptr, ptr %14, align 8, !tbaa !18
  call void @streamDecodeID(ptr noundef %18, ptr noundef %16)
  %19 = load ptr, ptr %9, align 8, !tbaa !173
  %20 = call i64 @rioWriteBulkCount(ptr noundef %19, i8 noundef signext 42, i64 noundef 12)
  %21 = icmp eq i64 %20, 0
  br i1 %21, label %22, label %23

22:                                               ; preds = %7
  store i32 0, ptr %8, align 4
  store i32 1, ptr %17, align 4
  br label %100

23:                                               ; preds = %7
  %24 = load ptr, ptr %9, align 8, !tbaa !173
  %25 = call i64 @rioWriteBulkString(ptr noundef %24, ptr noundef @.str.129, i64 noundef 6)
  %26 = icmp eq i64 %25, 0
  br i1 %26, label %27, label %28

27:                                               ; preds = %23
  store i32 0, ptr %8, align 4
  store i32 1, ptr %17, align 4
  br label %100

28:                                               ; preds = %23
  %29 = load ptr, ptr %9, align 8, !tbaa !173
  %30 = load ptr, ptr %10, align 8, !tbaa !132
  %31 = call i32 @rioWriteBulkObject(ptr noundef %29, ptr noundef %30)
  %32 = icmp eq i32 %31, 0
  br i1 %32, label %33, label %34

33:                                               ; preds = %28
  store i32 0, ptr %8, align 4
  store i32 1, ptr %17, align 4
  br label %100

34:                                               ; preds = %28
  %35 = load ptr, ptr %9, align 8, !tbaa !173
  %36 = load ptr, ptr %11, align 8, !tbaa !18
  %37 = load i64, ptr %12, align 8, !tbaa !23
  %38 = call i64 @rioWriteBulkString(ptr noundef %35, ptr noundef %36, i64 noundef %37)
  %39 = icmp eq i64 %38, 0
  br i1 %39, label %40, label %41

40:                                               ; preds = %34
  store i32 0, ptr %8, align 4
  store i32 1, ptr %17, align 4
  br label %100

41:                                               ; preds = %34
  %42 = load ptr, ptr %9, align 8, !tbaa !173
  %43 = load ptr, ptr %13, align 8, !tbaa !206
  %44 = getelementptr inbounds nuw %struct.streamConsumer, ptr %43, i32 0, i32 2
  %45 = load ptr, ptr %44, align 8, !tbaa !210
  %46 = load ptr, ptr %13, align 8, !tbaa !206
  %47 = getelementptr inbounds nuw %struct.streamConsumer, ptr %46, i32 0, i32 2
  %48 = load ptr, ptr %47, align 8, !tbaa !210
  %49 = call i64 @sdslen(ptr noundef %48)
  %50 = call i64 @rioWriteBulkString(ptr noundef %42, ptr noundef %45, i64 noundef %49)
  %51 = icmp eq i64 %50, 0
  br i1 %51, label %52, label %53

52:                                               ; preds = %41
  store i32 0, ptr %8, align 4
  store i32 1, ptr %17, align 4
  br label %100

53:                                               ; preds = %41
  %54 = load ptr, ptr %9, align 8, !tbaa !173
  %55 = call i64 @rioWriteBulkString(ptr noundef %54, ptr noundef @.str.130, i64 noundef 1)
  %56 = icmp eq i64 %55, 0
  br i1 %56, label %57, label %58

57:                                               ; preds = %53
  store i32 0, ptr %8, align 4
  store i32 1, ptr %17, align 4
  br label %100

58:                                               ; preds = %53
  %59 = load ptr, ptr %9, align 8, !tbaa !173
  %60 = call i32 @rioWriteBulkStreamID(ptr noundef %59, ptr noundef %16)
  %61 = icmp eq i32 %60, 0
  br i1 %61, label %62, label %63

62:                                               ; preds = %58
  store i32 0, ptr %8, align 4
  store i32 1, ptr %17, align 4
  br label %100

63:                                               ; preds = %58
  %64 = load ptr, ptr %9, align 8, !tbaa !173
  %65 = call i64 @rioWriteBulkString(ptr noundef %64, ptr noundef @.str.131, i64 noundef 4)
  %66 = icmp eq i64 %65, 0
  br i1 %66, label %67, label %68

67:                                               ; preds = %63
  store i32 0, ptr %8, align 4
  store i32 1, ptr %17, align 4
  br label %100

68:                                               ; preds = %63
  %69 = load ptr, ptr %9, align 8, !tbaa !173
  %70 = load ptr, ptr %15, align 8, !tbaa !208
  %71 = getelementptr inbounds nuw %struct.streamNACK, ptr %70, i32 0, i32 0
  %72 = load i64, ptr %71, align 8, !tbaa !212
  %73 = call i64 @rioWriteBulkLongLong(ptr noundef %69, i64 noundef %72)
  %74 = icmp eq i64 %73, 0
  br i1 %74, label %75, label %76

75:                                               ; preds = %68
  store i32 0, ptr %8, align 4
  store i32 1, ptr %17, align 4
  br label %100

76:                                               ; preds = %68
  %77 = load ptr, ptr %9, align 8, !tbaa !173
  %78 = call i64 @rioWriteBulkString(ptr noundef %77, ptr noundef @.str.132, i64 noundef 10)
  %79 = icmp eq i64 %78, 0
  br i1 %79, label %80, label %81

80:                                               ; preds = %76
  store i32 0, ptr %8, align 4
  store i32 1, ptr %17, align 4
  br label %100

81:                                               ; preds = %76
  %82 = load ptr, ptr %9, align 8, !tbaa !173
  %83 = load ptr, ptr %15, align 8, !tbaa !208
  %84 = getelementptr inbounds nuw %struct.streamNACK, ptr %83, i32 0, i32 1
  %85 = load i64, ptr %84, align 8, !tbaa !214
  %86 = call i64 @rioWriteBulkLongLong(ptr noundef %82, i64 noundef %85)
  %87 = icmp eq i64 %86, 0
  br i1 %87, label %88, label %89

88:                                               ; preds = %81
  store i32 0, ptr %8, align 4
  store i32 1, ptr %17, align 4
  br label %100

89:                                               ; preds = %81
  %90 = load ptr, ptr %9, align 8, !tbaa !173
  %91 = call i64 @rioWriteBulkString(ptr noundef %90, ptr noundef @.str.133, i64 noundef 6)
  %92 = icmp eq i64 %91, 0
  br i1 %92, label %93, label %94

93:                                               ; preds = %89
  store i32 0, ptr %8, align 4
  store i32 1, ptr %17, align 4
  br label %100

94:                                               ; preds = %89
  %95 = load ptr, ptr %9, align 8, !tbaa !173
  %96 = call i64 @rioWriteBulkString(ptr noundef %95, ptr noundef @.str.134, i64 noundef 5)
  %97 = icmp eq i64 %96, 0
  br i1 %97, label %98, label %99

98:                                               ; preds = %94
  store i32 0, ptr %8, align 4
  store i32 1, ptr %17, align 4
  br label %100

99:                                               ; preds = %94
  store i32 1, ptr %8, align 4
  store i32 1, ptr %17, align 4
  br label %100

100:                                              ; preds = %99, %98, %93, %88, %80, %75, %67, %62, %57, %52, %40, %33, %27, %22
  call void @llvm.lifetime.end.p0(i64 16, ptr %16) #12
  %101 = load i32, ptr %8, align 4
  ret i32 %101
}