; Function Attrs: nounwind uwtable
define dso_local range(i32 0, 2) i32 @rioWriteStreamPendingEntry(ptr noundef %0, ptr noundef readonly captures(none) %1, ptr noundef %2, i64 noundef %3, ptr noundef readonly captures(none) %4, ptr noundef %5, ptr noundef readonly captures(none) %6) local_unnamed_addr #0 {
  %8 = alloca %struct.streamID, align 8
  call void @llvm.lifetime.start.p0(i64 16, ptr nonnull %8) #20
  call void @streamDecodeID(ptr noundef %5, ptr noundef nonnull %8) #20
  %9 = call i64 @rioWriteBulkCount(ptr noundef %0, i8 noundef signext 42, i64 noundef 12) #20
  %10 = icmp eq i64 %9, 0
  br i1 %10, label %102, label %11

11:                                               ; preds = %7
  %12 = call i64 @rioWriteBulkString(ptr noundef %0, ptr noundef nonnull @.str.129, i64 noundef 6) #20
  %13 = icmp eq i64 %12, 0
  br i1 %13, label %102, label %14

14:                                               ; preds = %11
  %15 = call i32 @rioWriteBulkObject(ptr noundef %0, ptr noundef %1)
  %16 = icmp eq i32 %15, 0
  br i1 %16, label %102, label %17

17:                                               ; preds = %14
  %18 = call i64 @rioWriteBulkString(ptr noundef %0, ptr noundef %2, i64 noundef %3) #20
  %19 = icmp eq i64 %18, 0
  br i1 %19, label %102, label %20

20:                                               ; preds = %17
  %21 = getelementptr inbounds nuw i8, ptr %4, i64 16
  %22 = load ptr, ptr %21, align 8, !tbaa !178
  %23 = getelementptr inbounds i8, ptr %22, i64 -1
  %24 = load i8, ptr %23, align 1, !tbaa !18
  %25 = zext i8 %24 to i32
  %26 = and i32 %25, 7
  switch i32 %26, label %sdslen.exit [
    i32 0, label %27
    i32 1, label %30
    i32 2, label %34
    i32 3, label %38
    i32 4, label %42
  ]

27:                                               ; preds = %20
  %28 = lshr i32 %25, 3
  %29 = zext nneg i32 %28 to i64
  br label %sdslen.exit

30:                                               ; preds = %20
  %31 = getelementptr inbounds i8, ptr %22, i64 -3
  %32 = load i8, ptr %31, align 1, !tbaa !18
  %33 = zext i8 %32 to i64
  br label %sdslen.exit

34:                                               ; preds = %20
  %35 = getelementptr inbounds i8, ptr %22, i64 -5
  %36 = load i16, ptr %35, align 1, !tbaa !19
  %37 = zext i16 %36 to i64
  br label %sdslen.exit

38:                                               ; preds = %20
  %39 = getelementptr inbounds i8, ptr %22, i64 -9
  %40 = load i32, ptr %39, align 1, !tbaa !21
  %41 = zext i32 %40 to i64
  br label %sdslen.exit

42:                                               ; preds = %20
  %43 = getelementptr inbounds i8, ptr %22, i64 -17
  %44 = load i64, ptr %43, align 1, !tbaa !22
  br label %sdslen.exit

sdslen.exit:                                      ; preds = %20, %27, %30, %34, %38, %42
  %.0.i = phi i64 [ %44, %42 ], [ %41, %38 ], [ %37, %34 ], [ %33, %30 ], [ %29, %27 ], [ 0, %20 ]
  %45 = call i64 @rioWriteBulkString(ptr noundef %0, ptr noundef nonnull %22, i64 noundef %.0.i) #20
  %46 = icmp eq i64 %45, 0
  br i1 %46, label %102, label %47

47:                                               ; preds = %sdslen.exit
  %48 = call i64 @rioWriteBulkString(ptr noundef %0, ptr noundef nonnull @.str.130, i64 noundef 1) #20
  %49 = icmp eq i64 %48, 0
  br i1 %49, label %102, label %50

50:                                               ; preds = %47
  %51 = call ptr @sdsempty() #20
  %52 = load i64, ptr %8, align 8, !tbaa !175
  %53 = getelementptr inbounds nuw i8, ptr %8, i64 8
  %54 = load i64, ptr %53, align 8, !tbaa !177
  %55 = call ptr (ptr, ptr, ...) @sdscatfmt(ptr noundef %51, ptr noundef nonnull @.str.128, i64 noundef %52, i64 noundef %54) #20
  %56 = getelementptr inbounds i8, ptr %55, i64 -1
  %57 = load i8, ptr %56, align 1, !tbaa !18
  %58 = zext i8 %57 to i32
  %59 = and i32 %58, 7
  switch i32 %59, label %rioWriteBulkStreamID.exit [
    i32 0, label %60
    i32 1, label %63
    i32 2, label %67
    i32 3, label %71
    i32 4, label %75
  ]

60:                                               ; preds = %50
  %61 = lshr i32 %58, 3
  %62 = zext nneg i32 %61 to i64
  br label %rioWriteBulkStreamID.exit

63:                                               ; preds = %50
  %64 = getelementptr inbounds i8, ptr %55, i64 -3
  %65 = load i8, ptr %64, align 1, !tbaa !18
  %66 = zext i8 %65 to i64
  br label %rioWriteBulkStreamID.exit

67:                                               ; preds = %50
  %68 = getelementptr inbounds i8, ptr %55, i64 -5
  %69 = load i16, ptr %68, align 1, !tbaa !19
  %70 = zext i16 %69 to i64
  br label %rioWriteBulkStreamID.exit

71:                                               ; preds = %50
  %72 = getelementptr inbounds i8, ptr %55, i64 -9
  %73 = load i32, ptr %72, align 1, !tbaa !21
  %74 = zext i32 %73 to i64
  br label %rioWriteBulkStreamID.exit

75:                                               ; preds = %50
  %76 = getelementptr inbounds i8, ptr %55, i64 -17
  %77 = load i64, ptr %76, align 1, !tbaa !22
  br label %rioWriteBulkStreamID.exit

rioWriteBulkStreamID.exit:                        ; preds = %50, %60, %63, %67, %71, %75
  %.0.i.i = phi i64 [ %77, %75 ], [ %74, %71 ], [ %70, %67 ], [ %66, %63 ], [ %62, %60 ], [ 0, %50 ]
  %78 = call i64 @rioWriteBulkString(ptr noundef %0, ptr noundef nonnull %55, i64 noundef %.0.i.i) #20
  call void @sdsfree(ptr noundef nonnull %55) #20
  %79 = and i64 %78, 4294967295
  %80 = icmp eq i64 %79, 0
  br i1 %80, label %102, label %81

81:                                               ; preds = %rioWriteBulkStreamID.exit
  %82 = call i64 @rioWriteBulkString(ptr noundef %0, ptr noundef nonnull @.str.131, i64 noundef 4) #20
  %83 = icmp eq i64 %82, 0
  br i1 %83, label %102, label %84

84:                                               ; preds = %81
  %85 = load i64, ptr %6, align 8, !tbaa !180
  %86 = call i64 @rioWriteBulkLongLong(ptr noundef %0, i64 noundef %85) #20
  %87 = icmp eq i64 %86, 0
  br i1 %87, label %102, label %88

88:                                               ; preds = %84
  %89 = call i64 @rioWriteBulkString(ptr noundef %0, ptr noundef nonnull @.str.132, i64 noundef 10) #20
  %90 = icmp eq i64 %89, 0
  br i1 %90, label %102, label %91

91:                                               ; preds = %88
  %92 = getelementptr inbounds nuw i8, ptr %6, i64 8
  %93 = load i64, ptr %92, align 8, !tbaa !183
  %94 = call i64 @rioWriteBulkLongLong(ptr noundef %0, i64 noundef %93) #20
  %95 = icmp eq i64 %94, 0
  br i1 %95, label %102, label %96

96:                                               ; preds = %91
  %97 = call i64 @rioWriteBulkString(ptr noundef %0, ptr noundef nonnull @.str.133, i64 noundef 6) #20
  %98 = icmp eq i64 %97, 0
  br i1 %98, label %102, label %99

99:                                               ; preds = %96
  %100 = call i64 @rioWriteBulkString(ptr noundef %0, ptr noundef nonnull @.str.134, i64 noundef 5) #20
  %101 = icmp ne i64 %100, 0
  %. = zext i1 %101 to i32
  br label %102

102:                                              ; preds = %99, %96, %91, %88, %84, %81, %rioWriteBulkStreamID.exit, %47, %sdslen.exit, %17, %14, %11, %7
  %.0 = phi i32 [ 0, %7 ], [ 0, %11 ], [ 0, %14 ], [ 0, %17 ], [ 0, %sdslen.exit ], [ 0, %47 ], [ 0, %rioWriteBulkStreamID.exit ], [ 0, %81 ], [ 0, %84 ], [ 0, %88 ], [ 0, %91 ], [ 0, %96 ], [ %., %99 ]
  call void @llvm.lifetime.end.p0(i64 16, ptr nonnull %8) #20
  ret i32 %.0
}